target datalayout = "e-m:e-p270:32:32-p271:32:32-p272:64:64-i64:64-i128:128-f80:128-n8:16:32:64-S128"
target triple = "x86_64-pc-linux-gnu"

%struct.Header = type { i32, i32 }

@.str.6 = private unnamed_addr constant [23 x i8] c"integral size overflow\00", align 1
@.str.7 = private unnamed_addr constant [33 x i8] c"alignment %d is not a power of 2\00", align 1
@.str.8 = private unnamed_addr constant [27 x i8] c"invalid format option '%c'\00", align 1

; Function Attrs: nounwind uwtable
define internal i32 @getnum(ptr noundef %0, ptr noundef %1, i32 noundef %2) #0 {
  %4 = alloca i32, align 4
  %5 = alloca ptr, align 8
  %6 = alloca ptr, align 8
  %7 = alloca i32, align 4
  %8 = alloca i32, align 4
  store ptr %0, ptr %5, align 8, !tbaa !4
  store ptr %1, ptr %6, align 8, !tbaa !34
  store i32 %2, ptr %7, align 4, !tbaa !11
  %9 = call ptr @__ctype_b_loc() #7
  %10 = load ptr, ptr %9, align 8, !tbaa !28
  %11 = load ptr, ptr %6, align 8, !tbaa !34
  %12 = load ptr, ptr %11, align 8, !tbaa !9
  %13 = load i8, ptr %12, align 1, !tbaa !15
  %14 = sext i8 %13 to i32
  %15 = sext i32 %14 to i64
  %16 = getelementptr inbounds i16, ptr %10, i64 %15
  %17 = load i16, ptr %16, align 2, !tbaa !30
  %18 = zext i16 %17 to i32
  %19 = and i32 %18, 2048
  %20 = icmp ne i32 %19, 0
  br i1 %20, label %23, label %21

21:                                               ; preds = %3
  %22 = load i32, ptr %7, align 4, !tbaa !11
  store i32 %22, ptr %4, align 4
  br label %65

23:                                               ; preds = %3
  call void @llvm.lifetime.start.p0(i64 4, ptr %8) #6
  store i32 0, ptr %8, align 4, !tbaa !11
  br label %24

24:                                               ; preds = %50, %23
  %25 = load i32, ptr %8, align 4, !tbaa !11
  %26 = icmp sgt i32 %25, 214748364
  br i1 %26, label %37, label %27

27:                                               ; preds = %24
  %28 = load i32, ptr %8, align 4, !tbaa !11
  %29 = mul nsw i32 %28, 10
  %30 = load ptr, ptr %6, align 8, !tbaa !34
  %31 = load ptr, ptr %30, align 8, !tbaa !9
  %32 = load i8, ptr %31, align 1, !tbaa !15
  %33 = sext i8 %32 to i32
  %34 = sub nsw i32 %33, 48
  %35 = sub nsw i32 2147483647, %34
  %36 = icmp sgt i32 %29, %35
  br i1 %36, label %37, label %40

37:                                               ; preds = %27, %24
  %38 = load ptr, ptr %5, align 8, !tbaa !4
  %39 = call i32 (ptr, ptr, ...) @luaL_error(ptr noundef %38, ptr noundef @.str.6)
  br label %40

40:                                               ; preds = %37, %27
  %41 = load i32, ptr %8, align 4, !tbaa !11
  %42 = mul nsw i32 %41, 10
  %43 = load ptr, ptr %6, align 8, !tbaa !34
  %44 = load ptr, ptr %43, align 8, !tbaa !9
  %45 = getelementptr inbounds nuw i8, ptr %44, i32 1
  store ptr %45, ptr %43, align 8, !tbaa !9
  %46 = load i8, ptr %44, align 1, !tbaa !15
  %47 = sext i8 %46 to i32
  %48 = add nsw i32 %42, %47
  %49 = sub nsw i32 %48, 48
  store i32 %49, ptr %8, align 4, !tbaa !11
  br label %50

50:                                               ; preds = %40
  %51 = call ptr @__ctype_b_loc() #7
  %52 = load ptr, ptr %51, align 8, !tbaa !28
  %53 = load ptr, ptr %6, align 8, !tbaa !34
  %54 = load ptr, ptr %53, align 8, !tbaa !9
  %55 = load i8, ptr %54, align 1, !tbaa !15
  %56 = sext i8 %55 to i32
  %57 = sext i32 %56 to i64
  %58 = getelementptr inbounds i16, ptr %52, i64 %57
  %59 = load i16, ptr %58, align 2, !tbaa !30
  %60 = zext i16 %59 to i32
  %61 = and i32 %60, 2048
  %62 = icmp ne i32 %61, 0
  br i1 %62, label %24, label %63, !llvm.loop !43

63:                                               ; preds = %50
  %64 = load i32, ptr %8, align 4, !tbaa !11
  store i32 %64, ptr %4, align 4
  call void @llvm.lifetime.end.p0(i64 4, ptr %8) #6
  br label %65

65:                                               ; preds = %63, %21
  %66 = load i32, ptr %4, align 4
  ret i32 %66
}

; Function Attrs: nounwind uwtable
define internal void @controloptions(ptr noundef %0, i32 noundef %1, ptr noundef %2, ptr noundef %3) #0 {
  %5 = alloca ptr, align 8
  %6 = alloca i32, align 4
  %7 = alloca ptr, align 8
  %8 = alloca ptr, align 8
  %9 = alloca i32, align 4
  %10 = alloca ptr, align 8
  store ptr %0, ptr %5, align 8, !tbaa !4
  store i32 %1, ptr %6, align 4, !tbaa !11
  store ptr %2, ptr %7, align 8, !tbaa !34
  store ptr %3, ptr %8, align 8, !tbaa !36
  %11 = load i32, ptr %6, align 4, !tbaa !11
  switch i32 %11, label %39 [
    i32 32, label %12
    i32 62, label %13
    i32 60, label %16
    i32 33, label %19
  ]

12:                                               ; preds = %4
  br label %46

13:                                               ; preds = %4
  %14 = load ptr, ptr %8, align 8, !tbaa !36
  %15 = getelementptr inbounds nuw %struct.Header, ptr %14, i32 0, i32 0
  store i32 0, ptr %15, align 4, !tbaa !16
  br label %46

16:                                               ; preds = %4
  %17 = load ptr, ptr %8, align 8, !tbaa !36
  %18 = getelementptr inbounds nuw %struct.Header, ptr %17, i32 0, i32 0
  store i32 1, ptr %18, align 4, !tbaa !16
  br label %46

19:                                               ; preds = %4
  call void @llvm.lifetime.start.p0(i64 4, ptr %9) #6
  %20 = load ptr, ptr %5, align 8, !tbaa !4
  %21 = load ptr, ptr %7, align 8, !tbaa !34
  %22 = call i32 @getnum(ptr noundef %20, ptr noundef %21, i32 noundef 8)
  store i32 %22, ptr %9, align 4, !tbaa !11
  %23 = load i32, ptr %9, align 4, !tbaa !11
  %24 = icmp sgt i32 %23, 0
  br i1 %24, label %25, label %31

25:                                               ; preds = %19
  %26 = load i32, ptr %9, align 4, !tbaa !11
  %27 = load i32, ptr %9, align 4, !tbaa !11
  %28 = sub nsw i32 %27, 1
  %29 = and i32 %26, %28
  %30 = icmp eq i32 %29, 0
  br i1 %30, label %35, label %31

31:                                               ; preds = %25, %19
  %32 = load ptr, ptr %5, align 8, !tbaa !4
  %33 = load i32, ptr %9, align 4, !tbaa !11
  %34 = call i32 (ptr, ptr, ...) @luaL_error(ptr noundef %32, ptr noundef @.str.7, i32 noundef %33)
  br label %35

35:                                               ; preds = %31, %25
  %36 = load i32, ptr %9, align 4, !tbaa !11
  %37 = load ptr, ptr %8, align 8, !tbaa !36
  %38 = getelementptr inbounds nuw %struct.Header, ptr %37, i32 0, i32 1
  store i32 %36, ptr %38, align 4, !tbaa !18
  call void @llvm.lifetime.end.p0(i64 4, ptr %9) #6
  br label %46

39:                                               ; preds = %4
  call void @llvm.lifetime.start.p0(i64 8, ptr %10) #6
  %40 = load ptr, ptr %5, align 8, !tbaa !4
  %41 = load i32, ptr %6, align 4, !tbaa !11
  %42 = call ptr (ptr, ptr, ...) @lua_pushfstring(ptr noundef %40, ptr noundef @.str.8, i32 noundef %41)
  store ptr %42, ptr %10, align 8, !tbaa !9
  %43 = load ptr, ptr %5, align 8, !tbaa !4
  %44 = load ptr, ptr %10, align 8, !tbaa !9
  %45 = call i32 @luaL_argerror(ptr noundef %43, i32 noundef 1, ptr noundef %44)
  call void @llvm.lifetime.end.p0(i64 8, ptr %10) #6
  br label %46

46:                                               ; preds = %12, %13, %16, %35, %39
  ret void
}