; Function Attrs: nounwind uwtable
define internal fastcc void @controloptions(ptr noundef %0, i32 noundef range(i32 -128, 128) %1, ptr noundef nonnull captures(none) %2, ptr noundef nonnull writeonly captures(none) %3) unnamed_addr #0 {
  switch i32 %1, label %45 [
    i32 32, label %48
    i32 62, label %5
    i32 60, label %6
    i32 33, label %7
  ]

5:                                                ; preds = %4
  store i32 0, ptr %3, align 4, !tbaa !4
  br label %48

6:                                                ; preds = %4
  store i32 1, ptr %3, align 4, !tbaa !4
  br label %48

7:                                                ; preds = %4
  %8 = tail call ptr @__ctype_b_loc() #8
  %9 = load ptr, ptr %8, align 8, !tbaa !29
  %10 = load ptr, ptr %2, align 8, !tbaa !11
  %11 = load i8, ptr %10, align 1, !tbaa !10
  %12 = sext i8 %11 to i64
  %13 = getelementptr inbounds i16, ptr %9, i64 %12
  %14 = load i16, ptr %13, align 2, !tbaa !31
  %15 = and i16 %14, 2048
  %.not.i = icmp eq i16 %15, 0
  br i1 %.not.i, label %getnum.exit, label %.preheader.i

.preheader.i:                                     ; preds = %7, %25
  %16 = phi ptr [ %26, %25 ], [ %9, %7 ]
  %17 = phi i8 [ %33, %25 ], [ %11, %7 ]
  %18 = phi ptr [ %28, %25 ], [ %10, %7 ]
  %.0.i = phi i32 [ %32, %25 ], [ 0, %7 ]
  %19 = icmp sgt i32 %.0.i, 214748364
  %.pre14.i = mul nsw i32 %.0.i, 10
  br i1 %19, label %.preheader._crit_edge.i, label %20

20:                                               ; preds = %.preheader.i
  %21 = sext i8 %17 to i32
  %22 = sub i32 -2147483601, %21
  %23 = icmp sgt i32 %.pre14.i, %22
  br i1 %23, label %.preheader._crit_edge.i, label %25

.preheader._crit_edge.i:                          ; preds = %20, %.preheader.i
  %24 = tail call i32 (ptr, ptr, ...) @luaL_error(ptr noundef %0, ptr noundef nonnull @.str.6) #7
  %.pre.i = load ptr, ptr %2, align 8, !tbaa !11
  %.pre12.i = load ptr, ptr %8, align 8, !tbaa !29
  br label %25

25:                                               ; preds = %.preheader._crit_edge.i, %20
  %26 = phi ptr [ %.pre12.i, %.preheader._crit_edge.i ], [ %16, %20 ]
  %27 = phi ptr [ %.pre.i, %.preheader._crit_edge.i ], [ %18, %20 ]
  %28 = getelementptr inbounds nuw i8, ptr %27, i64 1
  store ptr %28, ptr %2, align 8, !tbaa !11
  %29 = load i8, ptr %27, align 1, !tbaa !10
  %30 = sext i8 %29 to i32
  %31 = add i32 %.pre14.i, -48
  %32 = add i32 %31, %30
  %33 = load i8, ptr %28, align 1, !tbaa !10
  %34 = sext i8 %33 to i64
  %35 = getelementptr inbounds i16, ptr %26, i64 %34
  %36 = load i16, ptr %35, align 2, !tbaa !31
  %37 = and i16 %36, 2048
  %.not11.i = icmp eq i16 %37, 0
  br i1 %.not11.i, label %getnum.exit, label %.preheader.i, !llvm.loop !37

getnum.exit:                                      ; preds = %25, %7
  %.010.i = phi i32 [ 8, %7 ], [ %32, %25 ]
  %38 = icmp sgt i32 %.010.i, 0
  %39 = tail call range(i32 1, 32) i32 @llvm.ctpop.i32(i32 %.010.i)
  %40 = icmp samesign ult i32 %39, 2
  %or.cond = select i1 %38, i1 %40, i1 false
  br i1 %or.cond, label %43, label %41

41:                                               ; preds = %getnum.exit
  %42 = tail call i32 (ptr, ptr, ...) @luaL_error(ptr noundef %0, ptr noundef nonnull @.str.7, i32 noundef %.010.i) #7
  br label %43

43:                                               ; preds = %getnum.exit, %41
  %44 = getelementptr inbounds nuw i8, ptr %3, i64 4
  store i32 %.010.i, ptr %44, align 4, !tbaa !9
  br label %48

45:                                               ; preds = %4
  %46 = tail call ptr (ptr, ptr, ...) @lua_pushfstring(ptr noundef %0, ptr noundef nonnull @.str.8, i32 noundef %1) #7
  %47 = tail call i32 @luaL_argerror(ptr noundef %0, i32 noundef 1, ptr noundef %46) #7
  br label %48

48:                                               ; preds = %4, %45, %43, %6, %5
  ret void
}